target datalayout = "e-m:e-p270:32:32-p271:32:32-p272:64:64-i64:64-i128:128-f80:128-n8:16:32:64-S128"
target triple = "x86_64-pc-linux-gnu"

@global_lock = internal global ptr null, align 8
@multi_success = internal global i32 0, align 4
@multi_libctx = internal global ptr null, align 8
@.str.53 = private unnamed_addr constant [9 x i8] c"SHA2-256\00", align 1

; Function Attrs: nounwind uwtable
define internal void @multi_set_success(i32 noundef %0) #0 {
  %2 = alloca i32, align 4
  store i32 %0, ptr %2, align 4, !tbaa !4
  %3 = load ptr, ptr @global_lock, align 8, !tbaa !13
  %4 = call i32 @CRYPTO_THREAD_write_lock(ptr noundef %3)
  %5 = icmp eq i32 %4, 0
  br i1 %5, label %6, label %8

6:                                                ; preds = %1
  %7 = load i32, ptr %2, align 4, !tbaa !4
  store i32 %7, ptr @multi_success, align 4, !tbaa !4
  br label %12

8:                                                ; preds = %1
  %9 = load i32, ptr %2, align 4, !tbaa !4
  store i32 %9, ptr @multi_success, align 4, !tbaa !4
  %10 = load ptr, ptr @global_lock, align 8, !tbaa !13
  %11 = call i32 @CRYPTO_THREAD_unlock(ptr noundef %10)
  br label %12

12:                                               ; preds = %8, %6
  ret void
}

; Function Attrs: nounwind uwtable
define internal void @thread_multi_simple_fetch() #0 {
  %1 = alloca ptr, align 8
  call void @llvm.lifetime.start.p0(i64 8, ptr %1) #10
  %2 = load ptr, ptr @multi_libctx, align 8, !tbaa !20
  %3 = call ptr @EVP_MD_fetch(ptr noundef %2, ptr noundef @.str.53, ptr noundef null)
  store ptr %3, ptr %1, align 8, !tbaa !24
  %4 = load ptr, ptr %1, align 8, !tbaa !24
  %5 = icmp ne ptr %4, null
  br i1 %5, label %6, label %8

6:                                                ; preds = %0
  %7 = load ptr, ptr %1, align 8, !tbaa !24
  call void @EVP_MD_free(ptr noundef %7)
  br label %9

8:                                                ; preds = %0
  call void @multi_set_success(i32 noundef 0)
  br label %9

9:                                                ; preds = %8, %6
  call void @llvm.lifetime.end.p0(i64 8, ptr %1) #10
  ret void
}