; Function Attrs: nounwind uwtable
define internal void @thread_multi_simple_fetch() #1 {
  %1 = load ptr, ptr @multi_libctx, align 8, !tbaa !16
  %2 = tail call ptr @EVP_MD_fetch(ptr noundef %1, ptr noundef nonnull @.str.53, ptr noundef null) #11
  %.not = icmp eq ptr %2, null
  br i1 %.not, label %4, label %3

3:                                                ; preds = %0
  tail call void @EVP_MD_free(ptr noundef nonnull %2) #11
  br label %multi_set_success.exit

4:                                                ; preds = %0
  %5 = load ptr, ptr @global_lock, align 8, !tbaa !11
  %6 = tail call i32 @CRYPTO_THREAD_write_lock(ptr noundef %5) #11
  %7 = icmp eq i32 %6, 0
  store i1 false, ptr @multi_success, align 4
  br i1 %7, label %multi_set_success.exit, label %8

8:                                                ; preds = %4
  %9 = load ptr, ptr @global_lock, align 8, !tbaa !11
  %10 = tail call i32 @CRYPTO_THREAD_unlock(ptr noundef %9) #11
  br label %multi_set_success.exit

multi_set_success.exit:                           ; preds = %8, %4, %3
  ret void
}